; Function Attrs: mustprogress uwtable
define noundef i32 @mz_zip_reader_init(ptr noundef %0, i64 noundef %1, i32 noundef %2) local_unnamed_addr #9 {
  %.not = icmp eq ptr %0, null
  br i1 %.not, label %mz_zip_reader_end.exit, label %4

4:                                                ; preds = %3
  %5 = getelementptr inbounds i8, ptr %0, i64 64
  %6 = load ptr, ptr %5, align 8
  %.not10 = icmp eq ptr %6, null
  br i1 %.not10, label %mz_zip_reader_end.exit, label %7

7:                                                ; preds = %4
  %8 = getelementptr inbounds i8, ptr %0, i64 88
  %9 = load ptr, ptr %8, align 8
  %.not22.i = icmp eq ptr %9, null
  br i1 %.not22.i, label %10, label %mz_zip_reader_end.exit

10:                                               ; preds = %7
  %11 = getelementptr inbounds i8, ptr %0, i64 20
  %12 = load i32, ptr %11, align 4
  %.not23.i = icmp eq i32 %12, 0
  br i1 %.not23.i, label %13, label %mz_zip_reader_end.exit

13:                                               ; preds = %10
  %14 = getelementptr inbounds i8, ptr %0, i64 32
  %15 = load ptr, ptr %14, align 8
  %.not24.i = icmp eq ptr %15, null
  br i1 %.not24.i, label %16, label %17

16:                                               ; preds = %13
  store ptr @_ZL14def_alloc_funcPvmm, ptr %14, align 8
  br label %17

17:                                               ; preds = %16, %13
  %18 = phi ptr [ @_ZL14def_alloc_funcPvmm, %16 ], [ %15, %13 ]
  %19 = getelementptr inbounds i8, ptr %0, i64 40
  %20 = load ptr, ptr %19, align 8
  %.not25.i = icmp eq ptr %20, null
  br i1 %.not25.i, label %21, label %22

21:                                               ; preds = %17
  store ptr @_ZL13def_free_funcPvS_, ptr %19, align 8
  br label %22

22:                                               ; preds = %21, %17
  %23 = getelementptr inbounds i8, ptr %0, i64 48
  %24 = load ptr, ptr %23, align 8
  %.not26.i = icmp eq ptr %24, null
  br i1 %.not26.i, label %25, label %26

25:                                               ; preds = %22
  store ptr @_ZL16def_realloc_funcPvS_mm, ptr %23, align 8
  br label %26

26:                                               ; preds = %25, %22
  store i32 1, ptr %11, align 4
  %27 = getelementptr inbounds i8, ptr %0, i64 56
  tail call void @llvm.memset.p0.i64(ptr noundef nonnull align 8 dereferenceable(20) %0, i8 0, i64 20, i1 false)
  %28 = load ptr, ptr %27, align 8
  %29 = tail call noundef ptr %18(ptr noundef %28, i64 noundef 1, i64 noundef 128)
  store ptr %29, ptr %8, align 8
  %30 = icmp eq ptr %29, null
  br i1 %30, label %mz_zip_reader_end.exit, label %31

31:                                               ; preds = %26
  tail call void @llvm.memset.p0.i64(ptr noundef nonnull align 8 dereferenceable(128) %29, i8 0, i64 128, i1 false)
  %32 = load ptr, ptr %8, align 8
  %33 = getelementptr inbounds i8, ptr %32, i64 24
  store i32 1, ptr %33, align 8
  %34 = load ptr, ptr %8, align 8
  %35 = getelementptr inbounds i8, ptr %34, i64 56
  store i32 4, ptr %35, align 8
  %36 = load ptr, ptr %8, align 8
  %37 = getelementptr inbounds i8, ptr %36, i64 88
  store i32 4, ptr %37, align 8
  store i64 %1, ptr %0, align 8
  %38 = tail call fastcc noundef i32 @_ZL30mz_zip_reader_read_central_dirP18mz_zip_archive_tagj(ptr noundef nonnull %0, i32 noundef %2), !range !16
  %.not12 = icmp eq i32 %38, 0
  br i1 %.not12, label %39, label %mz_zip_reader_end.exit

39:                                               ; preds = %31
  %40 = load ptr, ptr %8, align 8
  %.not36.i = icmp eq ptr %40, null
  br i1 %.not36.i, label %mz_zip_reader_end.exit, label %41

41:                                               ; preds = %39
  %42 = load ptr, ptr %14, align 8
  %.not37.i = icmp eq ptr %42, null
  br i1 %.not37.i, label %mz_zip_reader_end.exit, label %43

43:                                               ; preds = %41
  %44 = load ptr, ptr %19, align 8
  %.not38.i = icmp eq ptr %44, null
  br i1 %.not38.i, label %mz_zip_reader_end.exit, label %45

45:                                               ; preds = %43
  %46 = load i32, ptr %11, align 4
  %.not39.i = icmp eq i32 %46, 1
  br i1 %.not39.i, label %47, label %mz_zip_reader_end.exit

47:                                               ; preds = %45
  store ptr null, ptr %8, align 8
  %48 = load ptr, ptr %27, align 8
  %49 = load ptr, ptr %40, align 8
  tail call void %44(ptr noundef %48, ptr noundef %49)
  tail call void @llvm.memset.p0.i64(ptr noundef nonnull align 8 dereferenceable(32) %40, i8 0, i64 32, i1 false)
  %50 = getelementptr inbounds i8, ptr %40, i64 32
  %51 = load ptr, ptr %19, align 8
  %52 = load ptr, ptr %27, align 8
  %53 = load ptr, ptr %50, align 8
  tail call void %51(ptr noundef %52, ptr noundef %53)
  tail call void @llvm.memset.p0.i64(ptr noundef nonnull align 8 dereferenceable(32) %50, i8 0, i64 32, i1 false)
  %54 = getelementptr inbounds i8, ptr %40, i64 64
  %55 = load ptr, ptr %19, align 8
  %56 = load ptr, ptr %27, align 8
  %57 = load ptr, ptr %54, align 8
  tail call void %55(ptr noundef %56, ptr noundef %57)
  tail call void @llvm.memset.p0.i64(ptr noundef nonnull align 8 dereferenceable(32) %54, i8 0, i64 32, i1 false)
  %58 = getelementptr inbounds i8, ptr %40, i64 96
  %59 = load ptr, ptr %58, align 8
  %.not40.i = icmp eq ptr %59, null
  br i1 %.not40.i, label %62, label %60

60:                                               ; preds = %47
  %61 = tail call i32 @fclose(ptr noundef nonnull %59)
  store ptr null, ptr %58, align 8
  br label %62

62:                                               ; preds = %60, %47
  %63 = load ptr, ptr %19, align 8
  %64 = load ptr, ptr %27, align 8
  tail call void %63(ptr noundef %64, ptr noundef nonnull %40)
  store i32 0, ptr %11, align 4
  br label %mz_zip_reader_end.exit

mz_zip_reader_end.exit:                           ; preds = %26, %7, %10, %62, %45, %43, %41, %39, %31, %3, %4
  %.0 = phi i32 [ 0, %4 ], [ 0, %3 ], [ 1, %31 ], [ 0, %39 ], [ 0, %41 ], [ 0, %43 ], [ 0, %45 ], [ 0, %62 ], [ 0, %10 ], [ 0, %7 ], [ 0, %26 ]
  ret i32 %.0
}